target datalayout = "e-m:e-p270:32:32-p271:32:32-p272:64:64-i64:64-i128:128-f80:128-n8:16:32:64-S128"
target triple = "x86_64-pc-linux-gnu"

%struct.BrotliEncoderStateStruct = type { %struct.BrotliEncoderParams, %struct.MemoryManager, i64, %struct.RingBuffer, i64, ptr, i64, i64, i64, i64, i64, [16 x i32], [4 x i32], i16, i8, i8, i8, i8, i64, ptr, %struct.Hasher, [1024 x i32], ptr, i64, ptr, ptr, ptr, ptr, i64, ptr, i64, i64, %union.anon.0, i32, i32, i32, i32 }
%struct.BrotliEncoderParams = type { i32, i32, i32, i32, i64, i64, i32, i32, %struct.BrotliHasherParams, %struct.BrotliDistanceParams, %struct.SharedEncoderDictionary }
%struct.BrotliHasherParams = type { i32, i32, i32, i32 }
%struct.BrotliDistanceParams = type { i32, i32, i32, i32, i64 }
%struct.SharedEncoderDictionary = type { i32, %struct.CompoundDictionary, %struct.ContextualEncoderDictionary, i32 }
%struct.CompoundDictionary = type { i64, i64, [16 x ptr], [16 x ptr], [16 x i64], i64, [16 x ptr] }
%struct.ContextualEncoderDictionary = type { i32, i8, [64 x i8], [64 x ptr], i64, %struct.BrotliEncoderDictionary, ptr }
%struct.BrotliEncoderDictionary = type { ptr, i32, i32, i64, ptr, ptr, ptr, ptr, %struct.BrotliTrie, i32, ptr, ptr, ptr, i64, ptr, i64, ptr, ptr }
%struct.BrotliTrie = type { ptr, i64, i64, %struct.BrotliTrieNode }
%struct.BrotliTrieNode = type { i8, i8, i8, i32, i32 }
%struct.MemoryManager = type { ptr, ptr, ptr }
%struct.RingBuffer = type { i32, i32, i32, i32, i32, i32, ptr, ptr }
%struct.Hasher = type { %struct.HasherCommon, %union.anon }
%struct.HasherCommon = type { [4 x ptr], i32, i64, i64, %struct.BrotliHasherParams, i32 }
%union.anon = type { %struct.H42 }
%struct.H42 = type { [512 x i16], i64, [2 x ptr], ptr }
%union.anon.0 = type { [2 x i64] }

; Function Attrs: nounwind uwtable
define internal i32 @WrapPosition(i64 noundef %0) #0 {
  %2 = alloca i64, align 8
  %3 = alloca i32, align 4
  %4 = alloca i64, align 8
  store i64 %0, ptr %2, align 8, !tbaa !75
  call void @llvm.lifetime.start.p0(i64 4, ptr %3) #10
  %5 = load i64, ptr %2, align 8, !tbaa !75
  %6 = trunc i64 %5 to i32
  store i32 %6, ptr %3, align 4, !tbaa !8
  call void @llvm.lifetime.start.p0(i64 8, ptr %4) #10
  %7 = load i64, ptr %2, align 8, !tbaa !75
  %8 = lshr i64 %7, 30
  store i64 %8, ptr %4, align 8, !tbaa !75
  %9 = load i64, ptr %4, align 8, !tbaa !75
  %10 = icmp ugt i64 %9, 2
  br i1 %10, label %11, label %21

11:                                               ; preds = %1
  %12 = load i32, ptr %3, align 4, !tbaa !8
  %13 = and i32 %12, 1073741823
  %14 = load i64, ptr %4, align 8, !tbaa !75
  %15 = sub i64 %14, 1
  %16 = and i64 %15, 1
  %17 = trunc i64 %16 to i32
  %18 = add i32 %17, 1
  %19 = shl i32 %18, 30
  %20 = or i32 %13, %19
  store i32 %20, ptr %3, align 4, !tbaa !8
  br label %21

21:                                               ; preds = %11, %1
  %22 = load i32, ptr %3, align 4, !tbaa !8
  call void @llvm.lifetime.end.p0(i64 8, ptr %4) #10
  call void @llvm.lifetime.end.p0(i64 4, ptr %3) #10
  ret i32 %22
}

; Function Attrs: nounwind uwtable
define internal i32 @UpdateLastProcessedPos(ptr noundef %0) #0 {
  %2 = alloca ptr, align 8
  %3 = alloca i32, align 4
  %4 = alloca i32, align 4
  store ptr %0, ptr %2, align 8, !tbaa !3
  call void @llvm.lifetime.start.p0(i64 4, ptr %3) #10
  %5 = load ptr, ptr %2, align 8, !tbaa !3
  %6 = getelementptr inbounds nuw %struct.BrotliEncoderStateStruct, ptr %5, i32 0, i32 10
  %7 = load i64, ptr %6, align 8, !tbaa !54
  %8 = call i32 @WrapPosition(i64 noundef %7)
  store i32 %8, ptr %3, align 4, !tbaa !8
  call void @llvm.lifetime.start.p0(i64 4, ptr %4) #10
  %9 = load ptr, ptr %2, align 8, !tbaa !3
  %10 = getelementptr inbounds nuw %struct.BrotliEncoderStateStruct, ptr %9, i32 0, i32 2
  %11 = load i64, ptr %10, align 8, !tbaa !49
  %12 = call i32 @WrapPosition(i64 noundef %11)
  store i32 %12, ptr %4, align 4, !tbaa !8
  %13 = load ptr, ptr %2, align 8, !tbaa !3
  %14 = getelementptr inbounds nuw %struct.BrotliEncoderStateStruct, ptr %13, i32 0, i32 2
  %15 = load i64, ptr %14, align 8, !tbaa !49
  %16 = load ptr, ptr %2, align 8, !tbaa !3
  %17 = getelementptr inbounds nuw %struct.BrotliEncoderStateStruct, ptr %16, i32 0, i32 10
  store i64 %15, ptr %17, align 8, !tbaa !54
  %18 = load i32, ptr %4, align 4, !tbaa !8
  %19 = load i32, ptr %3, align 4, !tbaa !8
  %20 = icmp ult i32 %18, %19
  %21 = xor i1 %20, true
  %22 = xor i1 %21, true
  %23 = select i1 %22, i32 1, i32 0
  call void @llvm.lifetime.end.p0(i64 4, ptr %4) #10
  call void @llvm.lifetime.end.p0(i64 4, ptr %3) #10
  ret i32 %23
}