; Function Attrs: mustprogress nofree norecurse nosync nounwind willreturn memory(argmem: readwrite) uwtable
define internal fastcc range(i32 0, 2) i32 @UpdateLastProcessedPos(ptr noundef captures(none) %0) unnamed_addr #0 {
  %2 = getelementptr inbounds nuw i8, ptr %0, i64 1520
  %3 = load i64, ptr %2, align 8, !tbaa !83
  %4 = trunc i64 %3 to i32
  %5 = icmp ugt i64 %3, 3221225471
  br i1 %5, label %6, label %WrapPosition.exit

6:                                                ; preds = %1
  %7 = and i32 %4, 1073741823
  %8 = shl i32 %4, 1
  %9 = ashr exact i32 %8, 1
  %10 = and i32 %9, -1073741824
  %11 = or disjoint i32 %10, %7
  %12 = xor i32 %11, -2147483648
  br label %WrapPosition.exit

WrapPosition.exit:                                ; preds = %1, %6
  %.0.i = phi i32 [ %12, %6 ], [ %4, %1 ]
  %13 = getelementptr inbounds nuw i8, ptr %0, i64 1424
  %14 = load i64, ptr %13, align 8, !tbaa !54
  %15 = trunc i64 %14 to i32
  %16 = icmp ugt i64 %14, 3221225471
  br i1 %16, label %17, label %WrapPosition.exit6

17:                                               ; preds = %WrapPosition.exit
  %18 = and i32 %15, 1073741823
  %19 = shl i32 %15, 1
  %20 = ashr exact i32 %19, 1
  %21 = and i32 %20, -1073741824
  %22 = or disjoint i32 %21, %18
  %23 = xor i32 %22, -2147483648
  br label %WrapPosition.exit6

WrapPosition.exit6:                               ; preds = %WrapPosition.exit, %17
  %.0.i5 = phi i32 [ %23, %17 ], [ %15, %WrapPosition.exit ]
  store i64 %14, ptr %2, align 8, !tbaa !83
  %24 = icmp ult i32 %.0.i5, %.0.i
  %25 = zext i1 %24 to i32
  ret i32 %25
}